target datalayout = "e-m:e-p270:32:32-p271:32:32-p272:64:64-i64:64-i128:128-f80:128-n8:16:32:64-S128"
target triple = "x86_64-pc-linux-gnu"

; Function Attrs: nounwind uwtable
define ptr @mz_zip_reader_extract_file_to_heap(ptr noundef %0, ptr noundef %1, ptr noundef %2, i32 noundef %3) #0 {
  %5 = alloca ptr, align 8
  %6 = alloca ptr, align 8
  %7 = alloca ptr, align 8
  %8 = alloca ptr, align 8
  %9 = alloca i32, align 4
  %10 = alloca i32, align 4
  %11 = alloca i32, align 4
  store ptr %0, ptr %6, align 8
  store ptr %1, ptr %7, align 8
  store ptr %2, ptr %8, align 8
  store i32 %3, ptr %9, align 4
  call void @llvm.lifetime.start.p0(i64 4, ptr %10) #13
  %12 = load ptr, ptr %6, align 8
  %13 = load ptr, ptr %7, align 8
  %14 = load i32, ptr %9, align 4
  %15 = call i32 @mz_zip_reader_locate_file_v2(ptr noundef %12, ptr noundef %13, ptr noundef null, i32 noundef %14, ptr noundef %10)
  %16 = icmp ne i32 %15, 0
  br i1 %16, label %23, label %17

17:                                               ; preds = %4
  %18 = load ptr, ptr %8, align 8
  %19 = icmp ne ptr %18, null
  br i1 %19, label %20, label %22

20:                                               ; preds = %17
  %21 = load ptr, ptr %8, align 8
  store i64 0, ptr %21, align 8
  br label %22

22:                                               ; preds = %20, %17
  store ptr null, ptr %5, align 8
  store i32 1, ptr %11, align 4
  br label %29

23:                                               ; preds = %4
  %24 = load ptr, ptr %6, align 8
  %25 = load i32, ptr %10, align 4
  %26 = load ptr, ptr %8, align 8
  %27 = load i32, ptr %9, align 4
  %28 = call ptr @mz_zip_reader_extract_to_heap(ptr noundef %24, i32 noundef %25, ptr noundef %26, i32 noundef %27)
  store ptr %28, ptr %5, align 8
  store i32 1, ptr %11, align 4
  br label %29

29:                                               ; preds = %23, %22
  call void @llvm.lifetime.end.p0(i64 4, ptr %10) #13
  %30 = load ptr, ptr %5, align 8
  ret ptr %30
}