; Function Attrs: nounwind uwtable
define ptr @mz_zip_reader_extract_file_to_heap(ptr noundef captures(address_is_null) %0, ptr noundef captures(address_is_null) %1, ptr noundef captures(address_is_null) %2, i32 noundef %3) local_unnamed_addr #8 {
  %5 = alloca i32, align 4
  call void @llvm.lifetime.start.p0(i64 4, ptr nonnull %5) #34
  %6 = call i32 @mz_zip_reader_locate_file_v2(ptr noundef %0, ptr noundef %1, ptr noundef null, i32 noundef %3, ptr noundef nonnull %5)
  %.not = icmp eq i32 %6, 0
  br i1 %.not, label %7, label %9

7:                                                ; preds = %4
  %.not9 = icmp eq ptr %2, null
  br i1 %.not9, label %12, label %8

8:                                                ; preds = %7
  store i64 0, ptr %2, align 8
  br label %12

9:                                                ; preds = %4
  %10 = load i32, ptr %5, align 4
  %11 = call ptr @mz_zip_reader_extract_to_heap(ptr noundef %0, i32 noundef %10, ptr noundef %2, i32 noundef %3)
  br label %12

12:                                               ; preds = %7, %8, %9
  %.0 = phi ptr [ %11, %9 ], [ null, %8 ], [ null, %7 ]
  call void @llvm.lifetime.end.p0(i64 4, ptr nonnull %5) #34
  ret ptr %.0
}